; Function Attrs: mustprogress nofree norecurse nosync nounwind memory(write, argmem: readwrite, inaccessiblemem: none) uwtable
define hidden void @_ZN3ade14MemoryAccessor12SavedHandles7abandonEv(ptr noundef nonnull align 8 captures(none) dereferenceable(40) initializes((8, 16)) %0) local_unnamed_addr #8 align 2 {
  %2 = getelementptr inbounds nuw i8, ptr %0, i64 8
  store ptr null, ptr %2, align 8, !tbaa !16
  %3 = getelementptr inbounds nuw i8, ptr %0, i64 16
  %4 = load ptr, ptr %3, align 8, !tbaa !17
  %5 = getelementptr inbounds nuw i8, ptr %0, i64 24
  %6 = load ptr, ptr %5, align 8, !tbaa !17
  %.not7 = icmp eq ptr %4, %6
  br i1 %.not7, label %._crit_edge, label %.lr.ph

._crit_edge:                                      ; preds = %.lr.ph, %1
  ret void

.lr.ph:                                           ; preds = %1, %.lr.ph
  %.sroa.04.08 = phi ptr [ %8, %.lr.ph ], [ %4, %1 ]
  %7 = getelementptr inbounds nuw i8, ptr %.sroa.04.08, i64 8
  store ptr null, ptr %7, align 8, !tbaa !16
  %8 = getelementptr inbounds nuw i8, ptr %.sroa.04.08, i64 16
  %.not = icmp eq ptr %8, %6
  br i1 %.not, label %._crit_edge, label %.lr.ph
}